target datalayout = "e-m:e-p270:32:32-p271:32:32-p272:64:64-i64:64-i128:128-f80:128-n8:16:32:64-S128"
target triple = "x86_64-pc-linux-gnu"

%"class.folly::IPAddressV6" = type <{ %"union.folly::IPAddressV6::AddressStorage", i16, [2 x i8] }>
%"union.folly::IPAddressV6::AddressStorage" = type { %struct.in6_addr }
%struct.in6_addr = type { %union.anon }
%union.anon = type { [4 x i32] }
%"struct.std::array" = type { [16 x i8] }

; Function Attrs: inlinehint mustprogress nounwind uwtable
define linkonce_odr noundef i32 @_ZSt8__memcmpIhhEiPKT_PKT0_m(ptr noundef %0, ptr noundef %1, i64 noundef %2) #8 comdat {
  %4 = alloca ptr, align 8
  %5 = alloca ptr, align 8
  %6 = alloca i64, align 8
  store ptr %0, ptr %4, align 8, !tbaa !28
  store ptr %1, ptr %5, align 8, !tbaa !28
  store i64 %2, ptr %6, align 8, !tbaa !12
  %7 = load ptr, ptr %4, align 8, !tbaa !28
  %8 = load ptr, ptr %5, align 8, !tbaa !28
  %9 = load i64, ptr %6, align 8, !tbaa !12
  %10 = mul i64 1, %9
  %11 = call i32 @memcmp(ptr noundef %7, ptr noundef %8, i64 noundef %10) #13
  ret i32 %11
}

; Function Attrs: mustprogress uwtable
define linkonce_odr noundef zeroext i1 @_ZNSt7__equalILb1EE5equalIhEEbPKT_S4_S4_(ptr noundef %0, ptr noundef %1, ptr noundef %2) #0 comdat align 2 {
  %4 = alloca i1, align 1
  %5 = alloca ptr, align 8
  %6 = alloca ptr, align 8
  %7 = alloca ptr, align 8
  %8 = alloca i64, align 8
  %9 = alloca i32, align 4
  store ptr %0, ptr %5, align 8, !tbaa !28
  store ptr %1, ptr %6, align 8, !tbaa !28
  store ptr %2, ptr %7, align 8, !tbaa !28
  call void @llvm.lifetime.start.p0(i64 8, ptr %8) #13
  %10 = load ptr, ptr %6, align 8, !tbaa !28
  %11 = load ptr, ptr %5, align 8, !tbaa !28
  %12 = ptrtoint ptr %10 to i64
  %13 = ptrtoint ptr %11 to i64
  %14 = sub i64 %12, %13
  store i64 %14, ptr %8, align 8, !tbaa !12
  %15 = load i64, ptr %8, align 8, !tbaa !12
  %16 = icmp ne i64 %15, 0
  br i1 %16, label %17, label %24

17:                                               ; preds = %3
  %18 = load ptr, ptr %5, align 8, !tbaa !28
  %19 = load ptr, ptr %7, align 8, !tbaa !28
  %20 = load i64, ptr %8, align 8, !tbaa !12
  %21 = call noundef i32 @_ZSt8__memcmpIhhEiPKT_PKT0_m(ptr noundef %18, ptr noundef %19, i64 noundef %20)
  %22 = icmp ne i32 %21, 0
  %23 = xor i1 %22, true
  store i1 %23, ptr %4, align 1
  store i32 1, ptr %9, align 4
  br label %25

24:                                               ; preds = %3
  store i32 0, ptr %9, align 4
  br label %25

25:                                               ; preds = %24, %17
  call void @llvm.lifetime.end.p0(i64 8, ptr %8) #13
  %26 = load i32, ptr %9, align 4
  switch i32 %26, label %30 [
    i32 0, label %27
    i32 1, label %28
  ]

27:                                               ; preds = %25
  store i1 true, ptr %4, align 1
  br label %28

28:                                               ; preds = %27, %25
  %29 = load i1, ptr %4, align 1
  ret i1 %29

30:                                               ; preds = %25
  unreachable
}

; Function Attrs: inlinehint mustprogress uwtable
define linkonce_odr noundef zeroext i1 @_ZSt12__equal_aux1IPKhS1_EbT_S2_T0_(ptr noundef %0, ptr noundef %1, ptr noundef %2) #1 comdat {
  %4 = alloca ptr, align 8
  %5 = alloca ptr, align 8
  %6 = alloca ptr, align 8
  %7 = alloca i8, align 1
  store ptr %0, ptr %4, align 8, !tbaa !28
  store ptr %1, ptr %5, align 8, !tbaa !28
  store ptr %2, ptr %6, align 8, !tbaa !28
  call void @llvm.lifetime.start.p0(i64 1, ptr %7) #13
  store i8 1, ptr %7, align 1, !tbaa !44
  %8 = load ptr, ptr %4, align 8, !tbaa !28
  %9 = load ptr, ptr %5, align 8, !tbaa !28
  %10 = load ptr, ptr %6, align 8, !tbaa !28
  %11 = call noundef zeroext i1 @_ZNSt7__equalILb1EE5equalIhEEbPKT_S4_S4_(ptr noundef %8, ptr noundef %9, ptr noundef %10)
  call void @llvm.lifetime.end.p0(i64 1, ptr %7) #13
  ret i1 %11
}

; Function Attrs: inlinehint mustprogress nounwind uwtable
define linkonce_odr noundef ptr @_ZSt12__niter_baseIPKhET_S2_(ptr noundef %0) #8 comdat {
  %2 = alloca ptr, align 8
  store ptr %0, ptr %2, align 8, !tbaa !28
  %3 = load ptr, ptr %2, align 8, !tbaa !28
  ret ptr %3
}

; Function Attrs: inlinehint mustprogress uwtable
define linkonce_odr noundef zeroext i1 @_ZSt11__equal_auxIPKhS1_EbT_S2_T0_(ptr noundef %0, ptr noundef %1, ptr noundef %2) #1 comdat {
  %4 = alloca ptr, align 8
  %5 = alloca ptr, align 8
  %6 = alloca ptr, align 8
  store ptr %0, ptr %4, align 8, !tbaa !28
  store ptr %1, ptr %5, align 8, !tbaa !28
  store ptr %2, ptr %6, align 8, !tbaa !28
  %7 = load ptr, ptr %4, align 8, !tbaa !28
  %8 = call noundef ptr @_ZSt12__niter_baseIPKhET_S2_(ptr noundef %7) #13
  %9 = load ptr, ptr %5, align 8, !tbaa !28
  %10 = call noundef ptr @_ZSt12__niter_baseIPKhET_S2_(ptr noundef %9) #13
  %11 = load ptr, ptr %6, align 8, !tbaa !28
  %12 = call noundef ptr @_ZSt12__niter_baseIPKhET_S2_(ptr noundef %11) #13
  %13 = call noundef zeroext i1 @_ZSt12__equal_aux1IPKhS1_EbT_S2_T0_(ptr noundef %8, ptr noundef %10, ptr noundef %12)
  ret i1 %13
}

; Function Attrs: mustprogress nounwind uwtable
define linkonce_odr noundef ptr @_ZNKSt5arrayIhLm16EE4dataEv(ptr noundef nonnull align 1 dereferenceable(16) %0) #3 comdat align 2 {
  %2 = alloca ptr, align 8
  store ptr %0, ptr %2, align 8, !tbaa !157
  %3 = load ptr, ptr %2, align 8
  %4 = getelementptr inbounds nuw %"struct.std::array", ptr %3, i32 0, i32 0
  %5 = call noundef ptr @_ZNSt14__array_traitsIhLm16EE6_S_ptrERA16_Kh(ptr noundef nonnull align 1 dereferenceable(16) %4) #13
  ret ptr %5
}

; Function Attrs: mustprogress nounwind uwtable
define linkonce_odr noundef nonnull align 1 dereferenceable(1) ptr @_ZNSt14__array_traitsIhLm16EE6_S_refERA16_Khm(ptr noundef nonnull align 1 dereferenceable(16) %0, i64 noundef %1) #3 comdat align 2 {
  %3 = alloca ptr, align 8
  %4 = alloca i64, align 8
  store ptr %0, ptr %3, align 8, !tbaa !28
  store i64 %1, ptr %4, align 8, !tbaa !12
  %5 = load ptr, ptr %3, align 8, !tbaa !28
  %6 = load i64, ptr %4, align 8, !tbaa !12
  %7 = getelementptr inbounds nuw [16 x i8], ptr %5, i64 0, i64 %6
  ret ptr %7
}

; Function Attrs: mustprogress nounwind uwtable
define linkonce_odr noundef ptr @_ZNSt14__array_traitsIhLm16EE6_S_ptrERA16_Kh(ptr noundef nonnull align 1 dereferenceable(16) %0) #3 comdat align 2 {
  %2 = alloca ptr, align 8
  store ptr %0, ptr %2, align 8, !tbaa !28
  %3 = load ptr, ptr %2, align 8, !tbaa !28
  %4 = getelementptr inbounds [16 x i8], ptr %3, i64 0, i64 0
  ret ptr %4
}

; Function Attrs: inlinehint mustprogress uwtable
define linkonce_odr noundef zeroext i1 @_ZSt5equalIPKhS1_EbT_S2_T0_(ptr noundef %0, ptr noundef %1, ptr noundef %2) #1 comdat {
  %4 = alloca ptr, align 8
  %5 = alloca ptr, align 8
  %6 = alloca ptr, align 8
  store ptr %0, ptr %4, align 8, !tbaa !28
  store ptr %1, ptr %5, align 8, !tbaa !28
  store ptr %2, ptr %6, align 8, !tbaa !28
  %7 = load ptr, ptr %4, align 8, !tbaa !28
  %8 = load ptr, ptr %5, align 8, !tbaa !28
  %9 = load ptr, ptr %6, align 8, !tbaa !28
  %10 = call noundef zeroext i1 @_ZSt11__equal_auxIPKhS1_EbT_S2_T0_(ptr noundef %7, ptr noundef %8, ptr noundef %9)
  ret i1 %10
}

; Function Attrs: mustprogress nounwind uwtable
define linkonce_odr noundef ptr @_ZNKSt5arrayIhLm16EE3endEv(ptr noundef nonnull align 1 dereferenceable(16) %0) #3 comdat align 2 {
  %2 = alloca ptr, align 8
  store ptr %0, ptr %2, align 8, !tbaa !157
  %3 = load ptr, ptr %2, align 8
  %4 = call noundef ptr @_ZNKSt5arrayIhLm16EE4dataEv(ptr noundef nonnull align 1 dereferenceable(16) %3) #13
  %5 = getelementptr inbounds nuw i8, ptr %4, i64 16
  ret ptr %5
}

; Function Attrs: mustprogress nounwind uwtable
define linkonce_odr noundef ptr @_ZNKSt5arrayIhLm16EE5beginEv(ptr noundef nonnull align 1 dereferenceable(16) %0) #3 comdat align 2 {
  %2 = alloca ptr, align 8
  store ptr %0, ptr %2, align 8, !tbaa !157
  %3 = load ptr, ptr %2, align 8
  %4 = call noundef ptr @_ZNKSt5arrayIhLm16EE4dataEv(ptr noundef nonnull align 1 dereferenceable(16) %3) #13
  ret ptr %4
}

; Function Attrs: mustprogress nounwind uwtable
define linkonce_odr noundef nonnull align 1 dereferenceable(1) ptr @_ZNSt5arrayIhLm16EEixEm(ptr noundef nonnull align 1 dereferenceable(16) %0, i64 noundef %1) #3 comdat align 2 {
  %3 = alloca ptr, align 8
  %4 = alloca i64, align 8
  store ptr %0, ptr %3, align 8, !tbaa !157
  store i64 %1, ptr %4, align 8, !tbaa !12
  %5 = load ptr, ptr %3, align 8
  %6 = getelementptr inbounds nuw %"struct.std::array", ptr %5, i32 0, i32 0
  %7 = load i64, ptr %4, align 8, !tbaa !12
  %8 = call noundef nonnull align 1 dereferenceable(1) ptr @_ZNSt14__array_traitsIhLm16EE6_S_refERA16_Khm(ptr noundef nonnull align 1 dereferenceable(16) %6, i64 noundef %7) #13
  ret ptr %8
}

; Function Attrs: mustprogress nounwind uwtable
define linkonce_odr noundef nonnull align 1 dereferenceable(1) ptr @_ZNKSt5arrayIhLm16EEixEm(ptr noundef nonnull align 1 dereferenceable(16) %0, i64 noundef %1) #3 comdat align 2 {
  %3 = alloca ptr, align 8
  %4 = alloca i64, align 8
  store ptr %0, ptr %3, align 8, !tbaa !157
  store i64 %1, ptr %4, align 8, !tbaa !12
  %5 = load ptr, ptr %3, align 8
  %6 = getelementptr inbounds nuw %"struct.std::array", ptr %5, i32 0, i32 0
  %7 = load i64, ptr %4, align 8, !tbaa !12
  %8 = call noundef nonnull align 1 dereferenceable(1) ptr @_ZNSt14__array_traitsIhLm16EE6_S_refERA16_Khm(ptr noundef nonnull align 1 dereferenceable(16) %6, i64 noundef %7) #13
  ret ptr %8
}

; Function Attrs: mustprogress nounwind willreturn memory(none) uwtable
define linkonce_odr noundef i64 @_ZNKSt5arrayIhLm16EE4sizeEv(ptr noundef nonnull align 1 dereferenceable(16) %0) #25 comdat align 2 {
  %2 = alloca ptr, align 8
  store ptr %0, ptr %2, align 8, !tbaa !157
  ret i64 16
}

; Function Attrs: mustprogress nounwind uwtable
define linkonce_odr noundef ptr @_ZNK5folly11IPAddressV65bytesEv(ptr noundef nonnull align 4 dereferenceable(18) %0) #3 comdat align 2 {
  %2 = alloca ptr, align 8
  store ptr %0, ptr %2, align 8, !tbaa !7
  %3 = load ptr, ptr %2, align 8
  %4 = getelementptr inbounds nuw %"class.folly::IPAddressV6", ptr %3, i32 0, i32 0
  %5 = getelementptr inbounds nuw %struct.in6_addr, ptr %4, i32 0, i32 0
  %6 = getelementptr inbounds [16 x i8], ptr %5, i64 0, i64 0
  ret ptr %6
}

; Function Attrs: mustprogress nounwind willreturn memory(none) uwtable
define linkonce_odr noundef ptr @_ZNSt5arrayIhLm16EE4dataEv(ptr noundef nonnull align 1 dereferenceable(16) %0) #25 comdat align 2 {
  %2 = alloca ptr, align 8
  store ptr %0, ptr %2, align 8, !tbaa !157
  %3 = load ptr, ptr %2, align 8
  %4 = getelementptr inbounds nuw %"struct.std::array", ptr %3, i32 0, i32 0
  %5 = call noundef ptr @_ZNSt14__array_traitsIhLm16EE6_S_ptrERA16_Kh(ptr noundef nonnull align 1 dereferenceable(16) %4) #13
  ret ptr %5
}

; Function Attrs: inlinehint mustprogress uwtable
define linkonce_odr noundef zeroext i1 @_ZSteqIhLm16EEbRKSt5arrayIT_XT0_EES4_(ptr noundef nonnull align 1 dereferenceable(16) %0, ptr noundef nonnull align 1 dereferenceable(16) %1) #1 comdat {
  %3 = alloca ptr, align 8
  %4 = alloca ptr, align 8
  store ptr %0, ptr %3, align 8, !tbaa !157
  store ptr %1, ptr %4, align 8, !tbaa !157
  %5 = load ptr, ptr %3, align 8, !tbaa !157
  %6 = call noundef ptr @_ZNKSt5arrayIhLm16EE5beginEv(ptr noundef nonnull align 1 dereferenceable(16) %5) #13
  %7 = load ptr, ptr %3, align 8, !tbaa !157
  %8 = call noundef ptr @_ZNKSt5arrayIhLm16EE3endEv(ptr noundef nonnull align 1 dereferenceable(16) %7) #13
  %9 = load ptr, ptr %4, align 8, !tbaa !157
  %10 = call noundef ptr @_ZNKSt5arrayIhLm16EE5beginEv(ptr noundef nonnull align 1 dereferenceable(16) %9) #13
  %11 = call noundef zeroext i1 @_ZSt5equalIPKhS1_EbT_S2_T0_(ptr noundef %6, ptr noundef %8, ptr noundef %10)
  ret i1 %11
}

; Function Attrs: mustprogress nounwind uwtable
define linkonce_odr { i64, i64 } @_ZN5folly6detail5Bytes4maskILm16EEESt5arrayIhXT_EERKS4_S6_(ptr noundef nonnull align 1 dereferenceable(16) %0, ptr noundef nonnull align 1 dereferenceable(16) %1) #3 comdat align 2 {
  %3 = alloca %"struct.std::array", align 1
  %4 = alloca ptr, align 8
  %5 = alloca ptr, align 8
  %6 = alloca i64, align 8
  %7 = alloca i64, align 8
  store ptr %0, ptr %4, align 8, !tbaa !157
  store ptr %1, ptr %5, align 8, !tbaa !157
  call void @llvm.lifetime.start.p0(i64 8, ptr %6) #13
  %8 = load ptr, ptr %4, align 8, !tbaa !157
  %9 = call noundef i64 @_ZNKSt5arrayIhLm16EE4sizeEv(ptr noundef nonnull align 1 dereferenceable(16) %8) #31
  store i64 %9, ptr %6, align 8, !tbaa !12
  call void @llvm.memset.p0.i64(ptr align 1 %3, i8 0, i64 16, i1 false)
  call void @llvm.lifetime.start.p0(i64 8, ptr %7) #13
  store i64 0, ptr %7, align 8, !tbaa !12
  br label %10

10:                                               ; preds = %30, %2
  %11 = load i64, ptr %7, align 8, !tbaa !12
  %12 = load i64, ptr %6, align 8, !tbaa !12
  %13 = icmp ult i64 %11, %12
  br i1 %13, label %15, label %14

14:                                               ; preds = %10
  call void @llvm.lifetime.end.p0(i64 8, ptr %7) #13
  br label %33

15:                                               ; preds = %10
  %16 = load ptr, ptr %4, align 8, !tbaa !157
  %17 = load i64, ptr %7, align 8, !tbaa !12
  %18 = call noundef nonnull align 1 dereferenceable(1) ptr @_ZNKSt5arrayIhLm16EEixEm(ptr noundef nonnull align 1 dereferenceable(16) %16, i64 noundef %17) #13
  %19 = load i8, ptr %18, align 1, !tbaa !22
  %20 = zext i8 %19 to i32
  %21 = load ptr, ptr %5, align 8, !tbaa !157
  %22 = load i64, ptr %7, align 8, !tbaa !12
  %23 = call noundef nonnull align 1 dereferenceable(1) ptr @_ZNKSt5arrayIhLm16EEixEm(ptr noundef nonnull align 1 dereferenceable(16) %21, i64 noundef %22) #13
  %24 = load i8, ptr %23, align 1, !tbaa !22
  %25 = zext i8 %24 to i32
  %26 = and i32 %20, %25
  %27 = trunc i32 %26 to i8
  %28 = load i64, ptr %7, align 8, !tbaa !12
  %29 = call noundef nonnull align 1 dereferenceable(1) ptr @_ZNSt5arrayIhLm16EEixEm(ptr noundef nonnull align 1 dereferenceable(16) %3, i64 noundef %28) #13
  store i8 %27, ptr %29, align 1, !tbaa !22
  br label %30

30:                                               ; preds = %15
  %31 = load i64, ptr %7, align 8, !tbaa !12
  %32 = add i64 %31, 1
  store i64 %32, ptr %7, align 8, !tbaa !12
  br label %10, !llvm.loop !446

33:                                               ; preds = %14
  call void @llvm.lifetime.end.p0(i64 8, ptr %6) #13
  %34 = getelementptr inbounds nuw %"struct.std::array", ptr %3, i32 0, i32 0
  %35 = load { i64, i64 }, ptr %34, align 1
  ret { i64, i64 } %35
}

; Function Attrs: mustprogress nounwind uwtable
define linkonce_odr { i64, i64 } @_ZNK5folly11IPAddressV611toByteArrayEv(ptr noundef nonnull align 4 dereferenceable(18) %0) #3 comdat align 2 {
  %2 = alloca %"struct.std::array", align 1
  %3 = alloca ptr, align 8
  store ptr %0, ptr %3, align 8, !tbaa !7
  %4 = load ptr, ptr %3, align 8
  call void @llvm.memset.p0.i64(ptr align 1 %2, i8 0, i64 16, i1 false)
  %5 = call noundef ptr @_ZNSt5arrayIhLm16EE4dataEv(ptr noundef nonnull align 1 dereferenceable(16) %2) #31
  %6 = call noundef ptr @_ZNK5folly11IPAddressV65bytesEv(ptr noundef nonnull align 4 dereferenceable(18) %4)
  call void @llvm.memcpy.p0.p0.i64(ptr align 1 %5, ptr align 1 %6, i64 16, i1 false)
  %7 = getelementptr inbounds nuw %"struct.std::array", ptr %2, i32 0, i32 0
  %8 = load { i64, i64 }, ptr %7, align 1
  ret { i64, i64 } %8
}

; Function Attrs: mustprogress uwtable
define noundef zeroext i1 @_ZNK5folly11IPAddressV616inSubnetWithMaskERKS0_RKSt5arrayIhLm16EE(ptr noundef nonnull align 4 dereferenceable(18) %0, ptr noundef nonnull align 4 dereferenceable(18) %1, ptr noundef nonnull align 1 dereferenceable(16) %2) #0 align 2 {
  %4 = alloca ptr, align 8
  %5 = alloca ptr, align 8
  %6 = alloca ptr, align 8
  %7 = alloca %"struct.std::array", align 1
  %8 = alloca %"struct.std::array", align 1
  %9 = alloca %"struct.std::array", align 1
  %10 = alloca %"struct.std::array", align 1
  store ptr %0, ptr %4, align 8, !tbaa !7
  store ptr %1, ptr %5, align 8, !tbaa !7
  store ptr %2, ptr %6, align 8, !tbaa !157
  %11 = load ptr, ptr %4, align 8
  call void @llvm.lifetime.start.p0(i64 16, ptr %7) #13
  call void @llvm.lifetime.start.p0(i64 16, ptr %8) #13
  %12 = call { i64, i64 } @_ZNK5folly11IPAddressV611toByteArrayEv(ptr noundef nonnull align 4 dereferenceable(18) %11)
  %13 = getelementptr inbounds nuw %"struct.std::array", ptr %8, i32 0, i32 0
  %14 = getelementptr inbounds nuw { i64, i64 }, ptr %13, i32 0, i32 0
  %15 = extractvalue { i64, i64 } %12, 0
  store i64 %15, ptr %14, align 1
  %16 = getelementptr inbounds nuw { i64, i64 }, ptr %13, i32 0, i32 1
  %17 = extractvalue { i64, i64 } %12, 1
  store i64 %17, ptr %16, align 1
  %18 = load ptr, ptr %6, align 8, !tbaa !157
  %19 = call { i64, i64 } @_ZN5folly6detail5Bytes4maskILm16EEESt5arrayIhXT_EERKS4_S6_(ptr noundef nonnull align 1 dereferenceable(16) %8, ptr noundef nonnull align 1 dereferenceable(16) %18)
  %20 = getelementptr inbounds nuw %"struct.std::array", ptr %7, i32 0, i32 0
  %21 = getelementptr inbounds nuw { i64, i64 }, ptr %20, i32 0, i32 0
  %22 = extractvalue { i64, i64 } %19, 0
  store i64 %22, ptr %21, align 1
  %23 = getelementptr inbounds nuw { i64, i64 }, ptr %20, i32 0, i32 1
  %24 = extractvalue { i64, i64 } %19, 1
  store i64 %24, ptr %23, align 1
  call void @llvm.lifetime.end.p0(i64 16, ptr %8) #13
  call void @llvm.lifetime.start.p0(i64 16, ptr %9) #13
  call void @llvm.lifetime.start.p0(i64 16, ptr %10) #13
  %25 = load ptr, ptr %5, align 8, !tbaa !7
  %26 = call { i64, i64 } @_ZNK5folly11IPAddressV611toByteArrayEv(ptr noundef nonnull align 4 dereferenceable(18) %25)
  %27 = getelementptr inbounds nuw %"struct.std::array", ptr %10, i32 0, i32 0
  %28 = getelementptr inbounds nuw { i64, i64 }, ptr %27, i32 0, i32 0
  %29 = extractvalue { i64, i64 } %26, 0
  store i64 %29, ptr %28, align 1
  %30 = getelementptr inbounds nuw { i64, i64 }, ptr %27, i32 0, i32 1
  %31 = extractvalue { i64, i64 } %26, 1
  store i64 %31, ptr %30, align 1
  %32 = load ptr, ptr %6, align 8, !tbaa !157
  %33 = call { i64, i64 } @_ZN5folly6detail5Bytes4maskILm16EEESt5arrayIhXT_EERKS4_S6_(ptr noundef nonnull align 1 dereferenceable(16) %10, ptr noundef nonnull align 1 dereferenceable(16) %32)
  %34 = getelementptr inbounds nuw %"struct.std::array", ptr %9, i32 0, i32 0
  %35 = getelementptr inbounds nuw { i64, i64 }, ptr %34, i32 0, i32 0
  %36 = extractvalue { i64, i64 } %33, 0
  store i64 %36, ptr %35, align 1
  %37 = getelementptr inbounds nuw { i64, i64 }, ptr %34, i32 0, i32 1
  %38 = extractvalue { i64, i64 } %33, 1
  store i64 %38, ptr %37, align 1
  call void @llvm.lifetime.end.p0(i64 16, ptr %10) #13
  %39 = call noundef zeroext i1 @_ZSteqIhLm16EEbRKSt5arrayIT_XT0_EES4_(ptr noundef nonnull align 1 dereferenceable(16) %7, ptr noundef nonnull align 1 dereferenceable(16) %9)
  call void @llvm.lifetime.end.p0(i64 16, ptr %9) #13
  call void @llvm.lifetime.end.p0(i64 16, ptr %7) #13
  ret i1 %39
}