; Function Attrs: mustprogress nofree nounwind willreturn memory(argmem: read) uwtable
define noundef zeroext i1 @_ZNK5folly11IPAddressV616inSubnetWithMaskERKS0_RKSt5arrayIhLm16EE(ptr noundef nonnull readonly align 4 captures(none) dereferenceable(18) %0, ptr noundef nonnull readonly align 4 captures(none) dereferenceable(18) %1, ptr noundef nonnull readonly align 1 captures(none) dereferenceable(16) %2) local_unnamed_addr #30 align 2 {
  %4 = alloca %"struct.std::array", align 8
  %5 = alloca %"struct.std::array", align 8
  %6 = alloca %"struct.std::array", align 8
  %7 = alloca %"struct.std::array", align 8
  %8 = alloca %"struct.std::array", align 8
  %9 = alloca %"struct.std::array", align 8
  call void @llvm.lifetime.start.p0(i64 16, ptr nonnull %6) #37
  call void @llvm.lifetime.start.p0(i64 16, ptr nonnull %7) #37
  %.sroa.0.0.copyload.i = load i64, ptr %0, align 4
  %.sroa.3.0..sroa_idx.i = getelementptr inbounds nuw i8, ptr %0, i64 8
  %.sroa.3.0.copyload.i = load i64, ptr %.sroa.3.0..sroa_idx.i, align 4
  store i64 %.sroa.0.0.copyload.i, ptr %7, align 8
  %10 = getelementptr inbounds nuw i8, ptr %7, i64 8
  store i64 %.sroa.3.0.copyload.i, ptr %10, align 8
  call void @llvm.lifetime.start.p0(i64 16, ptr nonnull %5)
  call void @llvm.memset.p0.i64(ptr noundef nonnull align 8 dereferenceable(16) %5, i8 0, i64 16, i1 false)
  br label %11

11:                                               ; preds = %11, %3
  %.08.i = phi i64 [ 0, %3 ], [ %18, %11 ]
  %12 = getelementptr inbounds nuw [16 x i8], ptr %7, i64 0, i64 %.08.i
  %13 = load i8, ptr %12, align 1, !tbaa !9
  %14 = getelementptr inbounds nuw [16 x i8], ptr %2, i64 0, i64 %.08.i
  %15 = load i8, ptr %14, align 1, !tbaa !9
  %16 = and i8 %15, %13
  %17 = getelementptr inbounds nuw [16 x i8], ptr %5, i64 0, i64 %.08.i
  store i8 %16, ptr %17, align 1, !tbaa !9
  %18 = add nuw nsw i64 %.08.i, 1
  %exitcond.not.i = icmp eq i64 %18, 16
  br i1 %exitcond.not.i, label %_ZN5folly6detail5Bytes4maskILm16EEESt5arrayIhXT_EERKS4_S6_.exit, label %11, !llvm.loop !72

_ZN5folly6detail5Bytes4maskILm16EEESt5arrayIhXT_EERKS4_S6_.exit: ; preds = %11
  %.fca.0.load.i = load i64, ptr %5, align 8
  %.fca.1.gep.i = getelementptr inbounds nuw i8, ptr %5, i64 8
  %.fca.1.load.i = load i64, ptr %.fca.1.gep.i, align 8
  call void @llvm.lifetime.end.p0(i64 16, ptr nonnull %5)
  store i64 %.fca.0.load.i, ptr %6, align 8
  %19 = getelementptr inbounds nuw i8, ptr %6, i64 8
  store i64 %.fca.1.load.i, ptr %19, align 8
  call void @llvm.lifetime.end.p0(i64 16, ptr nonnull %7) #37
  call void @llvm.lifetime.start.p0(i64 16, ptr nonnull %8) #37
  call void @llvm.lifetime.start.p0(i64 16, ptr nonnull %9) #37
  %.sroa.0.0.copyload.i6 = load i64, ptr %1, align 4
  %.sroa.3.0..sroa_idx.i7 = getelementptr inbounds nuw i8, ptr %1, i64 8
  %.sroa.3.0.copyload.i8 = load i64, ptr %.sroa.3.0..sroa_idx.i7, align 4
  store i64 %.sroa.0.0.copyload.i6, ptr %9, align 8
  %20 = getelementptr inbounds nuw i8, ptr %9, i64 8
  store i64 %.sroa.3.0.copyload.i8, ptr %20, align 8
  call void @llvm.lifetime.start.p0(i64 16, ptr nonnull %4)
  call void @llvm.memset.p0.i64(ptr noundef nonnull align 8 dereferenceable(16) %4, i8 0, i64 16, i1 false)
  br label %21

21:                                               ; preds = %21, %_ZN5folly6detail5Bytes4maskILm16EEESt5arrayIhXT_EERKS4_S6_.exit
  %.08.i11 = phi i64 [ 0, %_ZN5folly6detail5Bytes4maskILm16EEESt5arrayIhXT_EERKS4_S6_.exit ], [ %28, %21 ]
  %22 = getelementptr inbounds nuw [16 x i8], ptr %9, i64 0, i64 %.08.i11
  %23 = load i8, ptr %22, align 1, !tbaa !9
  %24 = getelementptr inbounds nuw [16 x i8], ptr %2, i64 0, i64 %.08.i11
  %25 = load i8, ptr %24, align 1, !tbaa !9
  %26 = and i8 %25, %23
  %27 = getelementptr inbounds nuw [16 x i8], ptr %4, i64 0, i64 %.08.i11
  store i8 %26, ptr %27, align 1, !tbaa !9
  %28 = add nuw nsw i64 %.08.i11, 1
  %exitcond.not.i12 = icmp eq i64 %28, 16
  br i1 %exitcond.not.i12, label %_ZN5folly6detail5Bytes4maskILm16EEESt5arrayIhXT_EERKS4_S6_.exit18, label %21, !llvm.loop !72

_ZN5folly6detail5Bytes4maskILm16EEESt5arrayIhXT_EERKS4_S6_.exit18: ; preds = %21
  %.fca.0.load.i13 = load i64, ptr %4, align 8
  %.fca.1.gep.i15 = getelementptr inbounds nuw i8, ptr %4, i64 8
  %.fca.1.load.i16 = load i64, ptr %.fca.1.gep.i15, align 8
  call void @llvm.lifetime.end.p0(i64 16, ptr nonnull %4)
  store i64 %.fca.0.load.i13, ptr %8, align 8
  %29 = getelementptr inbounds nuw i8, ptr %8, i64 8
  store i64 %.fca.1.load.i16, ptr %29, align 8
  call void @llvm.lifetime.end.p0(i64 16, ptr nonnull %9) #37
  %bcmp.i.i.i.i.i = call i32 @bcmp(ptr noundef nonnull align 1 dereferenceable(16) %6, ptr noundef nonnull align 1 dereferenceable(16) %8, i64 16)
  %.not9.i.i.i.i.i = icmp eq i32 %bcmp.i.i.i.i.i, 0
  call void @llvm.lifetime.end.p0(i64 16, ptr nonnull %8) #37
  call void @llvm.lifetime.end.p0(i64 16, ptr nonnull %6) #37
  ret i1 %.not9.i.i.i.i.i
}